target datalayout = "e-m:e-p270:32:32-p271:32:32-p272:64:64-i64:64-i128:128-f80:128-n8:16:32:64-S128"
target triple = "x86_64-pc-linux-gnu"

%struct.expert_field = type { i32, i32 }

@hf_nfapi_number_pdus = internal global i32 0, align 4
@hf_nfapi_rach_prach_frequency_resources = internal global i32 0, align 4
@hf_nfapi_srs_present = internal global i32 0, align 4
@ett_nfapi_ul_config_request_pdu_list = internal global i32 0, align 4
@ei_invalid_range = internal global %struct.expert_field zeroinitializer, align 4
@.str.1839 = private unnamed_addr constant [3 x i8] c"%s\00", align 1
@.str.1840 = private unnamed_addr constant [5 x i8] c"[%d]\00", align 1
@.str.2075 = private unnamed_addr constant [52 x i8] c"Invalid rach prach frequency resources value [0..1]\00", align 1
@.str.2076 = private unnamed_addr constant [33 x i8] c"Invalid srs present value [0..1]\00", align 1
@.str.2077 = private unnamed_addr constant [19 x i8] c"UL Config PDU List\00", align 1

; Function Attrs: nounwind uwtable
define internal void @dissect_array_value(ptr noundef %0, ptr noundef %1, ptr noundef %2, i32 noundef %3, i32 noundef %4, ptr noundef %5) #0 {
  %7 = alloca ptr, align 8
  %8 = alloca ptr, align 8
  %9 = alloca ptr, align 8
  %10 = alloca i32, align 4
  %11 = alloca i32, align 4
  %12 = alloca ptr, align 8
  %13 = alloca i16, align 2
  store ptr %0, ptr %7, align 8
  store ptr %1, ptr %8, align 8
  store ptr %2, ptr %9, align 8
  store i32 %3, ptr %10, align 4
  store i32 %4, ptr %11, align 4
  store ptr %5, ptr %12, align 8
  %14 = load i32, ptr %11, align 4
  %15 = icmp ugt i32 %14, 0
  br i1 %15, label %16, label %41

16:                                               ; preds = %6
  %17 = load ptr, ptr %7, align 8
  %18 = load i32, ptr %10, align 4
  %19 = load ptr, ptr %9, align 8
  %20 = call ptr (ptr, i32, i32, ptr, ...) @ptvcursor_add_text_with_subtree(ptr noundef %17, i32 noundef -1, i32 noundef %18, ptr noundef @.str.1839, ptr noundef %19)
  store i16 0, ptr %13, align 2
  br label %21

21:                                               ; preds = %36, %16
  %22 = load i16, ptr %13, align 2
  %23 = zext i16 %22 to i32
  %24 = load i32, ptr %11, align 4
  %25 = icmp ult i32 %23, %24
  br i1 %25, label %26, label %39

26:                                               ; preds = %21
  %27 = load ptr, ptr %7, align 8
  %28 = load i32, ptr %10, align 4
  %29 = load i16, ptr %13, align 2
  %30 = zext i16 %29 to i32
  %31 = call ptr (ptr, i32, i32, ptr, ...) @ptvcursor_add_text_with_subtree(ptr noundef %27, i32 noundef -1, i32 noundef %28, ptr noundef @.str.1840, i32 noundef %30)
  %32 = load ptr, ptr %12, align 8
  %33 = load ptr, ptr %7, align 8
  %34 = load ptr, ptr %8, align 8
  call void %32(ptr noundef %33, ptr noundef %34)
  %35 = load ptr, ptr %7, align 8
  call void @ptvcursor_pop_subtree(ptr noundef %35)
  br label %36

36:                                               ; preds = %26
  %37 = load i16, ptr %13, align 2
  %38 = add i16 %37, 1
  store i16 %38, ptr %13, align 2
  br label %21, !llvm.loop !4

39:                                               ; preds = %21
  %40 = load ptr, ptr %7, align 8
  call void @ptvcursor_pop_subtree(ptr noundef %40)
  br label %41

41:                                               ; preds = %39, %6
  ret void
}

; Function Attrs: nounwind uwtable
define internal void @dissect_ul_config_request_body_value(ptr noundef %0, ptr noundef %1) #0 {
  %3 = alloca ptr, align 8
  %4 = alloca ptr, align 8
  %5 = alloca ptr, align 8
  %6 = alloca i32, align 4
  %7 = alloca i32, align 4
  %8 = alloca i32, align 4
  store ptr %0, ptr %3, align 8
  store ptr %1, ptr %4, align 8
  %9 = load ptr, ptr %3, align 8
  %10 = load i32, ptr @hf_nfapi_number_pdus, align 4
  %11 = call ptr @ptvcursor_add_ret_uint(ptr noundef %9, i32 noundef %10, i32 noundef 1, i32 noundef 0, ptr noundef %7)
  %12 = load ptr, ptr %3, align 8
  %13 = load i32, ptr @hf_nfapi_rach_prach_frequency_resources, align 4
  %14 = call ptr @ptvcursor_add_ret_uint(ptr noundef %12, i32 noundef %13, i32 noundef 1, i32 noundef 0, ptr noundef %6)
  store ptr %14, ptr %5, align 8
  %15 = load i32, ptr %6, align 4
  %16 = icmp ugt i32 %15, 1
  br i1 %16, label %17, label %21

17:                                               ; preds = %2
  %18 = load ptr, ptr %4, align 8
  %19 = load ptr, ptr %5, align 8
  %20 = call ptr (ptr, ptr, ptr, ptr, ...) @expert_add_info_format(ptr noundef %18, ptr noundef %19, ptr noundef @ei_invalid_range, ptr noundef @.str.2075)
  br label %21

21:                                               ; preds = %17, %2
  %22 = load ptr, ptr %3, align 8
  %23 = load i32, ptr @hf_nfapi_srs_present, align 4
  %24 = call ptr @ptvcursor_add_ret_boolean(ptr noundef %22, i32 noundef %23, i32 noundef 1, i32 noundef 0, ptr noundef %8)
  store ptr %24, ptr %5, align 8
  %25 = load i32, ptr %8, align 4
  %26 = icmp sgt i32 %25, 1
  br i1 %26, label %27, label %31

27:                                               ; preds = %21
  %28 = load ptr, ptr %4, align 8
  %29 = load ptr, ptr %5, align 8
  %30 = call ptr (ptr, ptr, ptr, ptr, ...) @expert_add_info_format(ptr noundef %28, ptr noundef %29, ptr noundef @ei_invalid_range, ptr noundef @.str.2076)
  br label %31

31:                                               ; preds = %27, %21
  %32 = load ptr, ptr %3, align 8
  %33 = load ptr, ptr %4, align 8
  %34 = load i32, ptr @ett_nfapi_ul_config_request_pdu_list, align 4
  %35 = load i32, ptr %7, align 4
  call void @dissect_array_value(ptr noundef %32, ptr noundef %33, ptr noundef @.str.2077, i32 noundef %34, i32 noundef %35, ptr noundef @dissect_ul_config_pdu)
  ret void
}