; Function Attrs: nounwind uwtable
define internal void @dissect_ul_config_request_body_value(ptr noundef %0, ptr noundef %1) #0 {
  %3 = alloca i32, align 4
  %4 = alloca i32, align 4
  %5 = alloca i32, align 4
  %6 = alloca i32, align 4
  %7 = alloca i32, align 4
  %8 = load i32, ptr @hf_nfapi_number_pdus, align 4
  %9 = call ptr @ptvcursor_add_ret_uint(ptr noundef %0, i32 noundef %8, i32 noundef 1, i32 noundef 0, ptr noundef nonnull %6) #7
  %10 = load i32, ptr @hf_nfapi_rach_prach_frequency_resources, align 4
  %11 = call ptr @ptvcursor_add_ret_uint(ptr noundef %0, i32 noundef %10, i32 noundef 1, i32 noundef 0, ptr noundef nonnull %5) #7
  %12 = load i32, ptr %5, align 4
  %13 = icmp ugt i32 %12, 1
  br i1 %13, label %14, label %16

14:                                               ; preds = %2
  %15 = call ptr (ptr, ptr, ptr, ptr, ...) @expert_add_info_format(ptr noundef %1, ptr noundef %11, ptr noundef nonnull @ei_invalid_range, ptr noundef nonnull @.str.2075) #7
  br label %16

16:                                               ; preds = %14, %2
  %17 = load i32, ptr @hf_nfapi_srs_present, align 4
  %18 = call ptr @ptvcursor_add_ret_boolean(ptr noundef %0, i32 noundef %17, i32 noundef 1, i32 noundef 0, ptr noundef nonnull %7) #7
  %19 = load i32, ptr %7, align 4
  %20 = icmp sgt i32 %19, 1
  br i1 %20, label %21, label %23

21:                                               ; preds = %16
  %22 = call ptr (ptr, ptr, ptr, ptr, ...) @expert_add_info_format(ptr noundef %1, ptr noundef %18, ptr noundef nonnull @ei_invalid_range, ptr noundef nonnull @.str.2076) #7
  br label %23

23:                                               ; preds = %21, %16
  %24 = load i32, ptr @ett_nfapi_ul_config_request_pdu_list, align 4
  %25 = load i32, ptr %6, align 4
  %.not.i = icmp eq i32 %25, 0
  br i1 %.not.i, label %dissect_array_value.exit, label %26

26:                                               ; preds = %23
  %27 = call ptr (ptr, i32, i32, ptr, ...) @ptvcursor_add_text_with_subtree(ptr noundef %0, i32 noundef -1, i32 noundef %24, ptr noundef nonnull @.str.1839, ptr noundef nonnull @.str.2077) #7
  br label %28

28:                                               ; preds = %dissect_ul_config_pdu.exit, %26
  %29 = phi i32 [ 0, %26 ], [ %44, %dissect_ul_config_pdu.exit ]
  %.016.i = phi i16 [ 0, %26 ], [ %43, %dissect_ul_config_pdu.exit ]
  %30 = call ptr (ptr, i32, i32, ptr, ...) @ptvcursor_add_text_with_subtree(ptr noundef %0, i32 noundef -1, i32 noundef %24, ptr noundef nonnull @.str.1840, i32 noundef %29) #7
  call void @llvm.lifetime.start.p0(i64 4, ptr nonnull %3)
  call void @llvm.lifetime.start.p0(i64 4, ptr nonnull %4)
  %31 = load i32, ptr @hf_nfapi_ul_config_pdu_type, align 4
  %32 = call ptr @ptvcursor_add_ret_uint(ptr noundef %0, i32 noundef %31, i32 noundef 1, i32 noundef 0, ptr noundef nonnull %3) #7
  %33 = load i32, ptr %3, align 4
  %34 = icmp ugt i32 %33, 15
  br i1 %34, label %35, label %dissect_ul_config_pdu.exit

35:                                               ; preds = %28
  %36 = call ptr (ptr, ptr, ptr, ptr, ...) @expert_add_info_format(ptr noundef %1, ptr noundef %32, ptr noundef nonnull @ei_invalid_range, ptr noundef nonnull @.str.2078) #7
  br label %dissect_ul_config_pdu.exit

dissect_ul_config_pdu.exit:                       ; preds = %28, %35
  %37 = load i32, ptr @hf_nfapi_pdu_size, align 4
  %38 = call ptr @ptvcursor_add_ret_uint(ptr noundef %0, i32 noundef %37, i32 noundef 1, i32 noundef 0, ptr noundef nonnull %4) #7
  %39 = call i32 @ptvcursor_current_offset(ptr noundef %0) #7
  %40 = load i32, ptr %4, align 4
  %41 = add i32 %39, -2
  %42 = add i32 %41, %40
  call fastcc void @dissect_tlv_list(ptr noundef %0, ptr noundef %1, i32 noundef %42)
  call void @llvm.lifetime.end.p0(i64 4, ptr nonnull %3)
  call void @llvm.lifetime.end.p0(i64 4, ptr nonnull %4)
  call void @ptvcursor_pop_subtree(ptr noundef %0) #7
  %43 = add i16 %.016.i, 1
  %44 = zext i16 %43 to i32
  %45 = icmp ugt i32 %25, %44
  br i1 %45, label %28, label %46, !llvm.loop !4

46:                                               ; preds = %dissect_ul_config_pdu.exit
  call void @ptvcursor_pop_subtree(ptr noundef %0) #7
  br label %dissect_array_value.exit

dissect_array_value.exit:                         ; preds = %23, %46
  ret void
}